target datalayout = "e-m:e-p270:32:32-p271:32:32-p272:64:64-i64:64-i128:128-f80:128-n8:16:32:64-S128"
target triple = "x86_64-pc-linux-gnu"

; Function Attrs: nounwind uwtable
define i32 @ossl_dh_get_named_group_uid_from_size(i32 noundef %0) #0 {
  %2 = alloca i32, align 4
  %3 = alloca i32, align 4
  %4 = alloca i32, align 4
  %5 = alloca i32, align 4
  store i32 %0, ptr %3, align 4, !tbaa !8
  call void @llvm.lifetime.start.p0(i64 4, ptr %4) #3
  %6 = load i32, ptr %3, align 4, !tbaa !8
  switch i32 %6, label %12 [
    i32 2048, label %7
    i32 3072, label %8
    i32 4096, label %9
    i32 6144, label %10
    i32 8192, label %11
  ]

7:                                                ; preds = %1
  store i32 1126, ptr %4, align 4, !tbaa !8
  br label %13

8:                                                ; preds = %1
  store i32 1127, ptr %4, align 4, !tbaa !8
  br label %13

9:                                                ; preds = %1
  store i32 1128, ptr %4, align 4, !tbaa !8
  br label %13

10:                                               ; preds = %1
  store i32 1129, ptr %4, align 4, !tbaa !8
  br label %13

11:                                               ; preds = %1
  store i32 1130, ptr %4, align 4, !tbaa !8
  br label %13

12:                                               ; preds = %1
  store i32 0, ptr %2, align 4
  store i32 1, ptr %5, align 4
  br label %15

13:                                               ; preds = %11, %10, %9, %8, %7
  %14 = load i32, ptr %4, align 4, !tbaa !8
  store i32 %14, ptr %2, align 4
  store i32 1, ptr %5, align 4
  br label %15

15:                                               ; preds = %13, %12
  call void @llvm.lifetime.end.p0(i64 4, ptr %4) #3
  %16 = load i32, ptr %2, align 4
  ret i32 %16
}