; Function Attrs: mustprogress nofree norecurse nosync nounwind willreturn memory(none) uwtable
define range(i32 0, 1131) i32 @ossl_dh_get_named_group_uid_from_size(i32 noundef %0) local_unnamed_addr #3 {
  %2 = add i32 %0, -2048
  %3 = tail call i32 @llvm.fshl.i32(i32 %2, i32 %2, i32 22)
  %4 = icmp ult i32 %3, 7
  br i1 %4, label %switch.lookup, label %6

switch.lookup:                                    ; preds = %1
  %5 = zext nneg i32 %3 to i64
  %switch.gep = getelementptr inbounds nuw [7 x i32], ptr @switch.table.ossl_dh_get_named_group_uid_from_size, i64 0, i64 %5
  %switch.load = load i32, ptr %switch.gep, align 4
  br label %6

6:                                                ; preds = %switch.lookup, %1
  %.03 = phi i32 [ 0, %1 ], [ %switch.load, %switch.lookup ]
  ret i32 %.03
}